target datalayout = "e-m:e-p270:32:32-p271:32:32-p272:64:64-i64:64-i128:128-f80:128-n8:16:32:64-S128"
target triple = "x86_64-pc-linux-gnu"

%struct._h248_package_t = type { i32, ptr, ptr, ptr, ptr, ptr, ptr, ptr, ptr, ptr, ptr }
%struct._packet_info = type { ptr, ptr, i32, i32, %struct.nstime_t, %struct.nstime_t, %struct.nstime_t, i32, ptr, ptr, ptr, ptr, %struct._address, %struct._address, %struct._address, %struct._address, %struct._address, %struct._address, i32, ptr, i32, %struct.anon, i32, i32, i32, i32, ptr, i32, ptr, ptr, i16, i16, i32, i32, i16, i32, i32, ptr, ptr, ptr, i8, i8, i16, i16, i16, i32, i16, i16, ptr, ptr, ptr, ptr, ptr, i32 }
%struct.nstime_t = type { i64, i32 }
%struct._address = type { i32, i32, ptr, ptr }
%struct.anon = type { i8, [3 x i8] }
%struct._asn1_ctx_t = type { i32, i32, i8, ptr, ptr, ptr, ptr, ptr, %struct.anon.2, %struct.anon.5, %struct.anon.6, ptr }
%struct.anon.2 = type { i32, i8, i8, i8, ptr, ptr, i32, i32, ptr, ptr, ptr, %union.anon }
%union.anon = type { %struct.anon.3 }
%struct.anon.3 = type { ptr }
%struct.anon.5 = type { ptr, ptr, ptr }
%struct.anon.6 = type { i32, i8, ptr, i32, i32, ptr, ptr, ptr, %union.anon.7 }
%union.anon.7 = type { %struct.anon.8 }
%struct.anon.8 = type { ptr }
%struct._save_h248_package_t = type { ptr, i32 }

@.str.41 = private unnamed_addr constant [12 x i8] c"  %s (%04x)\00", align 1
@.str.42 = private unnamed_addr constant [16 x i8] c"Unknown Package\00", align 1
@ett_packagename = internal global i32 0, align 4
@hf_h248_pkg_name = internal global i32 0, align 4
@.str.43 = private unnamed_addr constant [12 x i8] c"%s (0x%04x)\00", align 1
@hf_248_pkg_param = internal global i32 0, align 4
@.str.44 = private unnamed_addr constant [8 x i8] c"%s (%d)\00", align 1
@.str.45 = private unnamed_addr constant [13 x i8] c"Unknown (%d)\00", align 1
@.str.46 = private unnamed_addr constant [14 x i8] c"Signal ID: %s\00", align 1
@packages = internal global ptr null, align 8
@no_package = internal constant %struct._h248_package_t { i32 65535, ptr @hf_h248_no_pkg, ptr @ett_h248_no_pkg, ptr null, ptr null, ptr null, ptr null, ptr null, ptr null, ptr null, ptr null }, align 8

; Function Attrs: nounwind uwtable
define internal ptr @s_find_package_id(i16 noundef zeroext %0) #0 {
  %2 = alloca i16, align 2
  %3 = alloca ptr, align 8
  store i16 %0, ptr %2, align 2
  store ptr null, ptr %3, align 8
  %4 = load ptr, ptr @packages, align 8
  %5 = load i16, ptr %2, align 2
  %6 = zext i16 %5 to i32
  %7 = call ptr @wmem_tree_lookup32(ptr noundef %4, i32 noundef %6)
  store ptr %7, ptr %3, align 8
  %8 = load ptr, ptr %3, align 8
  ret ptr %8
}

; Function Attrs: nounwind uwtable
define internal ptr @find_package_id(i16 noundef zeroext %0) #0 {
  %2 = alloca ptr, align 8
  %3 = alloca i16, align 2
  %4 = alloca ptr, align 8
  store i16 %0, ptr %3, align 2
  store ptr null, ptr %4, align 8
  %5 = load i16, ptr %3, align 2
  %6 = call ptr @s_find_package_id(i16 noundef zeroext %5)
  store ptr %6, ptr %4, align 8
  %7 = load ptr, ptr %4, align 8
  %8 = icmp ne ptr %7, null
  br i1 %8, label %10, label %9

9:                                                ; preds = %1
  store ptr @no_package, ptr %2, align 8
  br label %14

10:                                               ; preds = %1
  %11 = load ptr, ptr %4, align 8
  %12 = getelementptr inbounds %struct._save_h248_package_t, ptr %11, i32 0, i32 0
  %13 = load ptr, ptr %12, align 8
  store ptr %13, ptr %2, align 8
  br label %14

14:                                               ; preds = %10, %9
  %15 = load ptr, ptr %2, align 8
  ret ptr %15
}

; Function Attrs: nounwind uwtable
define hidden void @h248_param_PkgdName(ptr noundef %0, ptr noundef %1, ptr noundef %2, i32 noundef %3, ptr noundef %4, ptr noundef %5) #0 {
  %7 = alloca ptr, align 8
  %8 = alloca ptr, align 8
  %9 = alloca ptr, align 8
  %10 = alloca i32, align 4
  %11 = alloca ptr, align 8
  %12 = alloca ptr, align 8
  %13 = alloca ptr, align 8
  %14 = alloca ptr, align 8
  %15 = alloca i16, align 2
  %16 = alloca i16, align 2
  %17 = alloca ptr, align 8
  %18 = alloca i32, align 4
  %19 = alloca %struct._asn1_ctx_t, align 8
  %20 = alloca ptr, align 8
  %21 = alloca ptr, align 8
  store ptr %0, ptr %7, align 8
  store ptr %1, ptr %8, align 8
  store ptr %2, ptr %9, align 8
  store i32 %3, ptr %10, align 4
  store ptr %4, ptr %11, align 8
  store ptr %5, ptr %12, align 8
  store ptr null, ptr %13, align 8
  store ptr null, ptr %14, align 8
  store ptr null, ptr %17, align 8
  store i32 0, ptr %18, align 4
  %22 = load ptr, ptr %9, align 8
  call void @asn1_ctx_init(ptr noundef %19, i32 noundef 0, i1 noundef zeroext true, ptr noundef %22)
  %23 = load ptr, ptr %7, align 8
  %24 = load ptr, ptr %8, align 8
  %25 = load i32, ptr %18, align 4
  %26 = load i32, ptr %10, align 4
  %27 = call i32 @dissect_ber_octet_string(i1 noundef zeroext false, ptr noundef %19, ptr noundef %23, ptr noundef %24, i32 noundef %25, i32 noundef %26, ptr noundef %13)
  store i32 %27, ptr %18, align 4
  %28 = load ptr, ptr %13, align 8
  %29 = icmp ne ptr %28, null
  br i1 %29, label %30, label %105

30:                                               ; preds = %6
  %31 = load ptr, ptr %13, align 8
  %32 = call zeroext i16 @tvb_get_ntohs(ptr noundef %31, i32 noundef 0)
  store i16 %32, ptr %15, align 2
  %33 = load ptr, ptr %13, align 8
  %34 = call zeroext i16 @tvb_get_ntohs(ptr noundef %33, i32 noundef 2)
  store i16 %34, ptr %16, align 2
  %35 = load i16, ptr %15, align 2
  %36 = call ptr @find_package_id(i16 noundef zeroext %35)
  store ptr %36, ptr %17, align 8
  %37 = getelementptr inbounds %struct._asn1_ctx_t, ptr %19, i32 0, i32 4
  %38 = load ptr, ptr %37, align 8
  %39 = load ptr, ptr %17, align 8
  %40 = getelementptr inbounds %struct._h248_package_t, ptr %39, i32 0, i32 3
  %41 = load ptr, ptr %40, align 8
  %42 = call ptr @val_to_str_const(i32 noundef 0, ptr noundef %41, ptr noundef @.str.42)
  %43 = load i16, ptr %15, align 2
  %44 = zext i16 %43 to i32
  call void (ptr, ptr, ...) @proto_item_append_text(ptr noundef %38, ptr noundef @.str.41, ptr noundef %42, i32 noundef %44)
  %45 = load ptr, ptr %7, align 8
  %46 = icmp ne ptr %45, null
  br i1 %46, label %47, label %104

47:                                               ; preds = %30
  %48 = getelementptr inbounds %struct._asn1_ctx_t, ptr %19, i32 0, i32 4
  %49 = load ptr, ptr %48, align 8
  %50 = load i32, ptr @ett_packagename, align 4
  %51 = call ptr @proto_item_add_subtree(ptr noundef %49, i32 noundef %50)
  store ptr %51, ptr %14, align 8
  %52 = load ptr, ptr %14, align 8
  %53 = load i32, ptr @hf_h248_pkg_name, align 4
  %54 = load ptr, ptr %8, align 8
  %55 = load i32, ptr %18, align 4
  %56 = sub i32 %55, 4
  %57 = load i16, ptr %15, align 2
  %58 = zext i16 %57 to i32
  %59 = load ptr, ptr %17, align 8
  %60 = getelementptr inbounds %struct._h248_package_t, ptr %59, i32 0, i32 3
  %61 = load ptr, ptr %60, align 8
  %62 = call ptr @val_to_str_const(i32 noundef 0, ptr noundef %61, ptr noundef @.str.42)
  %63 = load i16, ptr %15, align 2
  %64 = zext i16 %63 to i32
  %65 = call ptr (ptr, i32, ptr, i32, i32, i32, ptr, ...) @proto_tree_add_uint_format(ptr noundef %52, i32 noundef %53, ptr noundef %54, i32 noundef %56, i32 noundef 2, i32 noundef %58, ptr noundef @.str.43, ptr noundef %62, i32 noundef %64)
  %66 = load ptr, ptr %14, align 8
  %67 = load i32, ptr @hf_248_pkg_param, align 4
  %68 = load ptr, ptr %8, align 8
  %69 = load i32, ptr %18, align 4
  %70 = sub i32 %69, 2
  %71 = load i16, ptr %16, align 2
  %72 = zext i16 %71 to i32
  %73 = call ptr @proto_tree_add_uint(ptr noundef %66, i32 noundef %67, ptr noundef %68, i32 noundef %70, i32 noundef 2, i32 noundef %72)
  store ptr %73, ptr %20, align 8
  %74 = load ptr, ptr %17, align 8
  %75 = getelementptr inbounds %struct._h248_package_t, ptr %74, i32 0, i32 4
  %76 = load ptr, ptr %75, align 8
  %77 = icmp ne ptr %76, null
  br i1 %77, label %78, label %94

78:                                               ; preds = %47
  %79 = load i16, ptr %16, align 2
  %80 = zext i16 %79 to i32
  %81 = load ptr, ptr %17, align 8
  %82 = getelementptr inbounds %struct._h248_package_t, ptr %81, i32 0, i32 4
  %83 = load ptr, ptr %82, align 8
  %84 = call ptr @try_val_to_str(i32 noundef %80, ptr noundef %83)
  store ptr %84, ptr %21, align 8
  %85 = icmp ne ptr %84, null
  br i1 %85, label %86, label %94

86:                                               ; preds = %78
  %87 = load ptr, ptr %9, align 8
  %88 = getelementptr inbounds %struct._packet_info, ptr %87, i32 0, i32 50
  %89 = load ptr, ptr %88, align 8
  %90 = load ptr, ptr %21, align 8
  %91 = load i16, ptr %16, align 2
  %92 = zext i16 %91 to i32
  %93 = call noalias ptr (ptr, ptr, ...) @wmem_strdup_printf(ptr noundef %89, ptr noundef @.str.44, ptr noundef %90, i32 noundef %92)
  store ptr %93, ptr %21, align 8
  br label %101

94:                                               ; preds = %78, %47
  %95 = load ptr, ptr %9, align 8
  %96 = getelementptr inbounds %struct._packet_info, ptr %95, i32 0, i32 50
  %97 = load ptr, ptr %96, align 8
  %98 = load i16, ptr %16, align 2
  %99 = zext i16 %98 to i32
  %100 = call noalias ptr (ptr, ptr, ...) @wmem_strdup_printf(ptr noundef %97, ptr noundef @.str.45, i32 noundef %99)
  store ptr %100, ptr %21, align 8
  br label %101

101:                                              ; preds = %94, %86
  %102 = load ptr, ptr %20, align 8
  %103 = load ptr, ptr %21, align 8
  call void (ptr, ptr, ...) @proto_item_set_text(ptr noundef %102, ptr noundef @.str.46, ptr noundef %103)
  br label %104

104:                                              ; preds = %101, %30
  br label %105

105:                                              ; preds = %104, %6
  ret void
}