; Function Attrs: nounwind uwtable
define hidden void @h248_param_PkgdName(ptr noundef %0, ptr noundef %1, ptr noundef %2, i32 noundef %3, ptr noundef readnone captures(none) %4, ptr noundef readnone captures(none) %5) local_unnamed_addr #0 {
  %7 = alloca ptr, align 8
  %8 = alloca %struct._asn1_ctx_t, align 8
  store ptr null, ptr %7, align 8
  call void @asn1_ctx_init(ptr noundef nonnull %8, i32 noundef 0, i1 noundef zeroext true, ptr noundef %2) #7
  %9 = call i32 @dissect_ber_octet_string(i1 noundef zeroext false, ptr noundef nonnull %8, ptr noundef %0, ptr noundef %1, i32 noundef 0, i32 noundef %3, ptr noundef nonnull %7) #7
  %10 = load ptr, ptr %7, align 8
  %.not = icmp eq ptr %10, null
  br i1 %.not, label %51, label %11

11:                                               ; preds = %6
  %12 = call zeroext i16 @tvb_get_ntohs(ptr noundef nonnull %10, i32 noundef 0) #7
  %13 = load ptr, ptr %7, align 8
  %14 = call zeroext i16 @tvb_get_ntohs(ptr noundef %13, i32 noundef 2) #7
  %15 = load ptr, ptr @packages, align 8
  %16 = zext i16 %12 to i32
  %17 = call ptr @wmem_tree_lookup32(ptr noundef %15, i32 noundef %16) #7
  %.not.i = icmp eq ptr %17, null
  br i1 %.not.i, label %find_package_id.exit, label %18

18:                                               ; preds = %11
  %19 = load ptr, ptr %17, align 8
  br label %find_package_id.exit

find_package_id.exit:                             ; preds = %11, %18
  %.0.i = phi ptr [ %19, %18 ], [ @no_package, %11 ]
  %20 = getelementptr inbounds nuw i8, ptr %8, i64 24
  %21 = load ptr, ptr %20, align 8
  %22 = getelementptr inbounds nuw i8, ptr %.0.i, i64 24
  %23 = load ptr, ptr %22, align 8
  %24 = call ptr @val_to_str_const(i32 noundef 0, ptr noundef %23, ptr noundef nonnull @.str.42) #7
  call void (ptr, ptr, ...) @proto_item_append_text(ptr noundef %21, ptr noundef nonnull @.str.41, ptr noundef %24, i32 noundef %16) #7
  %.not31 = icmp eq ptr %0, null
  br i1 %.not31, label %51, label %25

25:                                               ; preds = %find_package_id.exit
  %26 = load ptr, ptr %20, align 8
  %27 = load i32, ptr @ett_packagename, align 4
  %28 = call ptr @proto_item_add_subtree(ptr noundef %26, i32 noundef %27) #7
  %29 = load i32, ptr @hf_h248_pkg_name, align 4
  %30 = add i32 %9, -4
  %31 = load ptr, ptr %22, align 8
  %32 = call ptr @val_to_str_const(i32 noundef 0, ptr noundef %31, ptr noundef nonnull @.str.42) #7
  %33 = call ptr (ptr, i32, ptr, i32, i32, i32, ptr, ...) @proto_tree_add_uint_format(ptr noundef %28, i32 noundef %29, ptr noundef %1, i32 noundef %30, i32 noundef 2, i32 noundef %16, ptr noundef nonnull @.str.43, ptr noundef %32, i32 noundef %16) #7
  %34 = load i32, ptr @hf_248_pkg_param, align 4
  %35 = add i32 %9, -2
  %36 = zext i16 %14 to i32
  %37 = call ptr @proto_tree_add_uint(ptr noundef %28, i32 noundef %34, ptr noundef %1, i32 noundef %35, i32 noundef 2, i32 noundef %36) #7
  %38 = getelementptr inbounds nuw i8, ptr %.0.i, i64 32
  %39 = load ptr, ptr %38, align 8
  %.not32 = icmp eq ptr %39, null
  br i1 %.not32, label %46, label %40

40:                                               ; preds = %25
  %41 = call ptr @try_val_to_str(i32 noundef %36, ptr noundef nonnull %39) #7
  %.not33 = icmp eq ptr %41, null
  br i1 %.not33, label %46, label %42

42:                                               ; preds = %40
  %43 = getelementptr inbounds nuw i8, ptr %2, i64 408
  %44 = load ptr, ptr %43, align 8
  %45 = call noalias ptr (ptr, ptr, ...) @wmem_strdup_printf(ptr noundef %44, ptr noundef nonnull @.str.44, ptr noundef nonnull %41, i32 noundef %36) #7
  br label %50

46:                                               ; preds = %40, %25
  %47 = getelementptr inbounds nuw i8, ptr %2, i64 408
  %48 = load ptr, ptr %47, align 8
  %49 = call noalias ptr (ptr, ptr, ...) @wmem_strdup_printf(ptr noundef %48, ptr noundef nonnull @.str.45, i32 noundef %36) #7
  br label %50

50:                                               ; preds = %46, %42
  %.0 = phi ptr [ %45, %42 ], [ %49, %46 ]
  call void (ptr, ptr, ...) @proto_item_set_text(ptr noundef %37, ptr noundef nonnull @.str.46, ptr noundef %.0) #7
  br label %51

51:                                               ; preds = %find_package_id.exit, %50, %6
  ret void
}